target datalayout = "e-m:e-p270:32:32-p271:32:32-p272:64:64-i64:64-i128:128-f80:128-n8:16:32:64-S128"
target triple = "x86_64-pc-linux-gnu"

%"class.std::__cxx11::basic_string" = type { %"struct.std::__cxx11::basic_string<char>::_Alloc_hider", i64, %union.anon }
%"struct.std::__cxx11::basic_string<char>::_Alloc_hider" = type { ptr }
%union.anon = type { i64, [8 x i8] }
%"class.duckdb::ScalarFunction" = type { %"class.duckdb::BaseScalarFunction.base", %"class.std::function", ptr, ptr, ptr, ptr, ptr, ptr, ptr, ptr, ptr, %"class.duckdb::shared_ptr.9" }
%"class.duckdb::BaseScalarFunction.base" = type <{ %"class.duckdb::SimpleFunction", %"struct.duckdb::LogicalType", i8, i8, i8, i8 }>
%"class.duckdb::SimpleFunction" = type { %"class.duckdb::Function", %"class.duckdb::vector.3", %"class.duckdb::vector.3", %"struct.duckdb::LogicalType" }
%"class.duckdb::Function" = type { ptr, %"class.std::__cxx11::basic_string", %"class.std::__cxx11::basic_string" }
%"class.duckdb::vector.3" = type { %"class.std::vector.4" }
%"class.std::vector.4" = type { %"struct.std::_Vector_base.5" }
%"struct.std::_Vector_base.5" = type { %"struct.std::_Vector_base<duckdb::LogicalType, std::allocator<duckdb::LogicalType>>::_Vector_impl" }
%"struct.std::_Vector_base<duckdb::LogicalType, std::allocator<duckdb::LogicalType>>::_Vector_impl" = type { %"struct.std::_Vector_base<duckdb::LogicalType, std::allocator<duckdb::LogicalType>>::_Vector_impl_data" }
%"struct.std::_Vector_base<duckdb::LogicalType, std::allocator<duckdb::LogicalType>>::_Vector_impl_data" = type { ptr, ptr, ptr }
%"struct.duckdb::LogicalType" = type { i8, i8, %"class.duckdb::shared_ptr" }
%"class.duckdb::shared_ptr" = type { %"class.std::shared_ptr" }
%"class.std::shared_ptr" = type { %"class.std::__shared_ptr" }
%"class.std::__shared_ptr" = type { ptr, %"class.std::__shared_count" }
%"class.std::__shared_count" = type { ptr }
%"class.std::function" = type { %"class.std::_Function_base", ptr }
%"class.std::_Function_base" = type { %"union.std::_Any_data", ptr }
%"union.std::_Any_data" = type { %"union.std::_Nocopy_types" }
%"union.std::_Nocopy_types" = type { { i64, i64 } }
%"class.duckdb::shared_ptr.9" = type { %"class.std::shared_ptr.10" }
%"class.std::shared_ptr.10" = type { %"class.std::__shared_ptr.11" }
%"class.std::__shared_ptr.11" = type { ptr, %"class.std::__shared_count" }
%"class.duckdb::DataChunk" = type { %"class.duckdb::vector.165", i64, i64, %"class.duckdb::vector.171" }
%"class.duckdb::vector.165" = type { %"class.std::vector.166" }
%"class.std::vector.166" = type { %"struct.std::_Vector_base.167" }
%"struct.std::_Vector_base.167" = type { %"struct.std::_Vector_base<duckdb::Vector, std::allocator<duckdb::Vector>>::_Vector_impl" }
%"struct.std::_Vector_base<duckdb::Vector, std::allocator<duckdb::Vector>>::_Vector_impl" = type { %"struct.std::_Vector_base<duckdb::Vector, std::allocator<duckdb::Vector>>::_Vector_impl_data" }
%"struct.std::_Vector_base<duckdb::Vector, std::allocator<duckdb::Vector>>::_Vector_impl_data" = type { ptr, ptr, ptr }
%"class.duckdb::vector.171" = type { %"class.std::vector.172" }
%"class.std::vector.172" = type { %"struct.std::_Vector_base.173" }
%"struct.std::_Vector_base.173" = type { %"struct.std::_Vector_base<duckdb::VectorCache, std::allocator<duckdb::VectorCache>>::_Vector_impl" }
%"struct.std::_Vector_base<duckdb::VectorCache, std::allocator<duckdb::VectorCache>>::_Vector_impl" = type { %"struct.std::_Vector_base<duckdb::VectorCache, std::allocator<duckdb::VectorCache>>::_Vector_impl_data" }
%"struct.std::_Vector_base<duckdb::VectorCache, std::allocator<duckdb::VectorCache>>::_Vector_impl_data" = type { ptr, ptr, ptr }
%"class.duckdb::unique_ptr" = type { %"class.std::unique_ptr" }
%"class.std::unique_ptr" = type { %"struct.std::__uniq_ptr_data" }
%"struct.std::__uniq_ptr_data" = type { %"class.std::__uniq_ptr_impl" }
%"class.std::__uniq_ptr_impl" = type { %"class.std::tuple" }
%"class.std::tuple" = type { %"struct.std::_Tuple_impl" }
%"struct.std::_Tuple_impl" = type { %"struct.std::_Head_base.14" }
%"struct.std::_Head_base.14" = type { ptr }
%"class.duckdb::Expression" = type { %"class.duckdb::BaseExpression", %"struct.duckdb::LogicalType", %"class.duckdb::unique_ptr.15" }
%"class.duckdb::BaseExpression" = type { ptr, i8, i8, %"class.std::__cxx11::basic_string", %"class.duckdb::optional_idx" }
%"class.duckdb::optional_idx" = type { i64 }
%"class.duckdb::unique_ptr.15" = type { %"class.std::unique_ptr.16" }
%"class.std::unique_ptr.16" = type { %"struct.std::__uniq_ptr_data.17" }
%"struct.std::__uniq_ptr_data.17" = type { %"class.std::__uniq_ptr_impl.18" }
%"class.std::__uniq_ptr_impl.18" = type { %"class.std::tuple.19" }
%"class.std::tuple.19" = type { %"struct.std::_Tuple_impl.20" }
%"struct.std::_Tuple_impl.20" = type { %"struct.std::_Head_base.23" }
%"struct.std::_Head_base.23" = type { ptr }
%"class.duckdb::BoundFunctionExpression" = type <{ %"class.duckdb::Expression", %"class.duckdb::ScalarFunction", %"class.duckdb::vector.26", %"class.duckdb::unique_ptr", i8, [7 x i8] }>
%"class.duckdb::vector.26" = type { %"class.std::vector.27" }
%"class.std::vector.27" = type { %"struct.std::_Vector_base.28" }
%"struct.std::_Vector_base.28" = type { %"struct.std::_Vector_base<duckdb::unique_ptr<duckdb::Expression>, std::allocator<duckdb::unique_ptr<duckdb::Expression>>>::_Vector_impl" }
%"struct.std::_Vector_base<duckdb::unique_ptr<duckdb::Expression>, std::allocator<duckdb::unique_ptr<duckdb::Expression>>>::_Vector_impl" = type { %"struct.std::_Vector_base<duckdb::unique_ptr<duckdb::Expression>, std::allocator<duckdb::unique_ptr<duckdb::Expression>>>::_Vector_impl_data" }
%"struct.std::_Vector_base<duckdb::unique_ptr<duckdb::Expression>, std::allocator<duckdb::unique_ptr<duckdb::Expression>>>::_Vector_impl_data" = type { ptr, ptr, ptr }
%"struct.duckdb::ExpressionState" = type { ptr, ptr, ptr, %"class.duckdb::vector.196", %"class.duckdb::vector.3", %"class.duckdb::DataChunk", %"class.duckdb::vector.202" }
%"class.duckdb::vector.196" = type { %"class.std::vector.197" }
%"class.std::vector.197" = type { %"struct.std::_Vector_base.198" }
%"struct.std::_Vector_base.198" = type { %"struct.std::_Vector_base<duckdb::unique_ptr<duckdb::ExpressionState>, std::allocator<duckdb::unique_ptr<duckdb::ExpressionState>>>::_Vector_impl" }
%"struct.std::_Vector_base<duckdb::unique_ptr<duckdb::ExpressionState>, std::allocator<duckdb::unique_ptr<duckdb::ExpressionState>>>::_Vector_impl" = type { %"struct.std::_Vector_base<duckdb::unique_ptr<duckdb::ExpressionState>, std::allocator<duckdb::unique_ptr<duckdb::ExpressionState>>>::_Vector_impl_data" }
%"struct.std::_Vector_base<duckdb::unique_ptr<duckdb::ExpressionState>, std::allocator<duckdb::unique_ptr<duckdb::ExpressionState>>>::_Vector_impl_data" = type { ptr, ptr, ptr }
%"class.duckdb::vector.202" = type { %"class.std::vector.203" }
%"class.std::vector.203" = type { %"struct.std::_Bvector_base" }
%"struct.std::_Bvector_base" = type { %"struct.std::_Bvector_base<std::allocator<bool>>::_Bvector_impl" }
%"struct.std::_Bvector_base<std::allocator<bool>>::_Bvector_impl" = type { %"struct.std::_Bvector_base<std::allocator<bool>>::_Bvector_impl_data" }
%"struct.std::_Bvector_base<std::allocator<bool>>::_Bvector_impl_data" = type { %"struct.std::_Bit_iterator", %"struct.std::_Bit_iterator", ptr }
%"struct.std::_Bit_iterator" = type { %"struct.std::_Bit_iterator_base.base", [4 x i8] }
%"struct.std::_Bit_iterator_base.base" = type <{ ptr, i32 }>
%class.anon.248 = type { ptr, ptr }

@_ZN6duckdb13NumericHelper13POWERS_OF_TENE = external constant [20 x i64], align 16

; Function Attrs: mustprogress uwtable
define linkonce_odr void @_ZN6duckdb13UnaryExecutor7ExecuteIiiZNS_20RoundDecimalOperator9OperationIiNS_13NumericHelperEEEvRNS_9DataChunkEhRNS_6VectorEEUliE_EEvS8_S8_mT1_NS_14FunctionErrorsE(ptr noundef nonnull align 8 dereferenceable(104) %0, ptr noundef nonnull align 8 dereferenceable(104) %1, i64 noundef %2, ptr %3, ptr %4, i8 noundef zeroext %5) #0 comdat align 2 {
  %7 = alloca %class.anon.248, align 8
  %8 = alloca ptr, align 8
  %9 = alloca ptr, align 8
  %10 = alloca i64, align 8
  %11 = alloca i8, align 1
  %12 = getelementptr inbounds nuw { ptr, ptr }, ptr %7, i32 0, i32 0
  store ptr %3, ptr %12, align 8
  %13 = getelementptr inbounds nuw { ptr, ptr }, ptr %7, i32 0, i32 1
  store ptr %4, ptr %13, align 8
  store ptr %0, ptr %8, align 8, !tbaa !23
  store ptr %1, ptr %9, align 8, !tbaa !23
  store i64 %2, ptr %10, align 8, !tbaa !104
  store i8 %5, ptr %11, align 1, !tbaa !525
  %14 = load ptr, ptr %8, align 8, !tbaa !23
  %15 = load ptr, ptr %9, align 8, !tbaa !23
  %16 = load i64, ptr %10, align 8, !tbaa !104
  %17 = load i8, ptr %11, align 1, !tbaa !525
  call void @_ZN6duckdb13UnaryExecutor15ExecuteStandardIiiNS_18UnaryLambdaWrapperEZNS_20RoundDecimalOperator9OperationIiNS_13NumericHelperEEEvRNS_9DataChunkEhRNS_6VectorEEUliE_EEvS9_S9_mPvbNS_14FunctionErrorsE(ptr noundef nonnull align 8 dereferenceable(104) %14, ptr noundef nonnull align 8 dereferenceable(104) %15, i64 noundef %16, ptr noundef %7, i1 noundef zeroext false, i8 noundef zeroext %17)
  ret void
}

; Function Attrs: inlinehint mustprogress nounwind uwtable
define linkonce_odr noundef i64 @_ZNK6duckdb9DataChunk4sizeEv(ptr noundef nonnull align 8 dereferenceable(64) %0) #6 comdat align 2 {
  %2 = alloca ptr, align 8
  store ptr %0, ptr %2, align 8, !tbaa !19
  %3 = load ptr, ptr %2, align 8
  %4 = getelementptr inbounds nuw %"class.duckdb::DataChunk", ptr %3, i32 0, i32 1
  %5 = load i64, ptr %4, align 8, !tbaa !381
  ret i64 %5
}

; Function Attrs: mustprogress nounwind uwtable
define linkonce_odr noundef i32 @_ZN6duckdb17UnsafeNumericCastIilvEET_T0_(i64 noundef %0) #4 comdat {
  %2 = alloca i64, align 8
  store i64 %0, ptr %2, align 8, !tbaa !104
  %3 = load i64, ptr %2, align 8, !tbaa !104
  %4 = trunc i64 %3 to i32
  ret i32 %4
}

; Function Attrs: mustprogress uwtable
define linkonce_odr void @_ZN6duckdb20RoundDecimalOperator9OperationIiNS_13NumericHelperEEEvRNS_9DataChunkEhRNS_6VectorE(ptr noundef nonnull align 8 dereferenceable(64) %0, i8 noundef zeroext %1, ptr noundef nonnull align 8 dereferenceable(104) %2) #0 comdat align 2 {
  %4 = alloca ptr, align 8
  %5 = alloca i8, align 1
  %6 = alloca ptr, align 8
  %7 = alloca i32, align 4
  %8 = alloca i32, align 4
  %9 = alloca %class.anon.248, align 8
  store ptr %0, ptr %4, align 8, !tbaa !19
  store i8 %1, ptr %5, align 1, !tbaa !119
  store ptr %2, ptr %6, align 8, !tbaa !23
  call void @llvm.lifetime.start.p0(i64 4, ptr %7) #20
  %10 = load i8, ptr %5, align 1, !tbaa !119
  %11 = zext i8 %10 to i64
  %12 = getelementptr inbounds nuw [20 x i64], ptr @_ZN6duckdb13NumericHelper13POWERS_OF_TENE, i64 0, i64 %11
  %13 = load i64, ptr %12, align 8, !tbaa !104
  %14 = call noundef i32 @_ZN6duckdb17UnsafeNumericCastIilvEET_T0_(i64 noundef %13)
  store i32 %14, ptr %7, align 4, !tbaa !127
  call void @llvm.lifetime.start.p0(i64 4, ptr %8) #20
  %15 = load i32, ptr %7, align 4, !tbaa !127
  %16 = sdiv i32 %15, 2
  store i32 %16, ptr %8, align 4, !tbaa !127
  %17 = load ptr, ptr %4, align 8, !tbaa !19
  %18 = getelementptr inbounds nuw %"class.duckdb::DataChunk", ptr %17, i32 0, i32 0
  %19 = call noundef nonnull align 8 dereferenceable(104) ptr @_ZN6duckdb6vectorINS_6VectorELb1EEixEm(ptr noundef nonnull align 8 dereferenceable(24) %18, i64 noundef 0)
  %20 = load ptr, ptr %6, align 8, !tbaa !23
  %21 = load ptr, ptr %4, align 8, !tbaa !19
  %22 = call noundef i64 @_ZNK6duckdb9DataChunk4sizeEv(ptr noundef nonnull align 8 dereferenceable(64) %21)
  %23 = getelementptr inbounds nuw %class.anon.248, ptr %9, i32 0, i32 0
  store ptr %8, ptr %23, align 8, !tbaa !179
  %24 = getelementptr inbounds nuw %class.anon.248, ptr %9, i32 0, i32 1
  store ptr %7, ptr %24, align 8, !tbaa !179
  %25 = getelementptr inbounds nuw { ptr, ptr }, ptr %9, i32 0, i32 0
  %26 = load ptr, ptr %25, align 8
  %27 = getelementptr inbounds nuw { ptr, ptr }, ptr %9, i32 0, i32 1
  %28 = load ptr, ptr %27, align 8
  call void @_ZN6duckdb13UnaryExecutor7ExecuteIiiZNS_20RoundDecimalOperator9OperationIiNS_13NumericHelperEEEvRNS_9DataChunkEhRNS_6VectorEEUliE_EEvS8_S8_mT1_NS_14FunctionErrorsE(ptr noundef nonnull align 8 dereferenceable(104) %19, ptr noundef nonnull align 8 dereferenceable(104) %20, i64 noundef %22, ptr %26, ptr %28, i8 noundef zeroext 1)
  call void @llvm.lifetime.end.p0(i64 4, ptr %8) #20
  call void @llvm.lifetime.end.p0(i64 4, ptr %7) #20
  ret void
}

; Function Attrs: mustprogress uwtable
define internal void @_ZN6duckdbL27GenericRoundFunctionDecimalIiNS_13NumericHelperENS_20RoundDecimalOperatorEEEvRNS_9DataChunkERNS_15ExpressionStateERNS_6VectorE(ptr noundef nonnull align 8 dereferenceable(64) %0, ptr noundef nonnull align 8 dereferenceable(176) %1, ptr noundef nonnull align 8 dereferenceable(104) %2) #0 {
  %4 = alloca ptr, align 8
  %5 = alloca ptr, align 8
  %6 = alloca ptr, align 8
  %7 = alloca ptr, align 8
  store ptr %0, ptr %4, align 8, !tbaa !19
  store ptr %1, ptr %5, align 8, !tbaa !21
  store ptr %2, ptr %6, align 8, !tbaa !23
  call void @llvm.lifetime.start.p0(i64 8, ptr %7) #20
  %8 = load ptr, ptr %5, align 8, !tbaa !21
  %9 = getelementptr inbounds nuw %"struct.duckdb::ExpressionState", ptr %8, i32 0, i32 1
  %10 = load ptr, ptr %9, align 8, !tbaa !141
  %11 = call noundef nonnull align 8 dereferenceable(417) ptr @_ZNK6duckdb14BaseExpression4CastINS_23BoundFunctionExpressionEEERKT_v(ptr noundef nonnull align 8 dereferenceable(56) %10)
  store ptr %11, ptr %7, align 8, !tbaa !97
  %12 = load ptr, ptr %4, align 8, !tbaa !19
  %13 = load ptr, ptr %7, align 8, !tbaa !97
  %14 = getelementptr inbounds nuw %"class.duckdb::BoundFunctionExpression", ptr %13, i32 0, i32 2
  %15 = call noundef nonnull align 8 dereferenceable(8) ptr @_ZNK6duckdb6vectorINS_10unique_ptrINS_10ExpressionESt14default_deleteIS2_ELb1EEELb1EEixEm(ptr noundef nonnull align 8 dereferenceable(24) %14, i64 noundef 0)
  %16 = call noundef ptr @_ZNK6duckdb10unique_ptrINS_10ExpressionESt14default_deleteIS1_ELb1EEptEv(ptr noundef nonnull align 8 dereferenceable(8) %15)
  %17 = getelementptr inbounds nuw %"class.duckdb::Expression", ptr %16, i32 0, i32 1
  %18 = call noundef zeroext i8 @_ZN6duckdb11DecimalType8GetScaleERKNS_11LogicalTypeE(ptr noundef nonnull align 8 dereferenceable(24) %17)
  %19 = load ptr, ptr %6, align 8, !tbaa !23
  call void @_ZN6duckdb20RoundDecimalOperator9OperationIiNS_13NumericHelperEEEvRNS_9DataChunkEhRNS_6VectorE(ptr noundef nonnull align 8 dereferenceable(64) %12, i8 noundef zeroext %18, ptr noundef nonnull align 8 dereferenceable(104) %19)
  call void @llvm.lifetime.end.p0(i64 8, ptr %7) #20
  ret void
}